; Function Attrs: mustprogress uwtable
define noundef i32 @cvCountNonZero(ptr noundef %0) local_unnamed_addr #0 personality ptr @__gxx_personality_v0 {
  %2 = alloca %"class.cv::Mat", align 8
  %3 = alloca %"class.cv::_OutputArray", align 8
  %4 = alloca %"class.cv::_InputArray", align 8
  call void @llvm.lifetime.start.p0(i64 96, ptr nonnull %2) #9
  call void @_ZN2cv10cvarrToMatEPKvbbiPNS_10AutoBufferIdLm136EEE(ptr dead_on_unwind nonnull writable sret(%"class.cv::Mat") align 8 %2, ptr noundef %0, i1 noundef zeroext false, i1 noundef zeroext true, i32 noundef 1, ptr noundef null)
  %5 = load i32, ptr %2, align 8, !tbaa !30
  %6 = and i32 %5, 4088
  %.not = icmp eq i32 %6, 0
  br i1 %.not, label %13, label %7

7:                                                ; preds = %1
  call void @llvm.lifetime.start.p0(i64 24, ptr nonnull %3) #9
  %8 = getelementptr inbounds nuw i8, ptr %3, i64 8
  %9 = getelementptr inbounds nuw i8, ptr %3, i64 16
  store i64 0, ptr %9, align 8
  store i32 33619968, ptr %3, align 8, !tbaa !9
  store ptr %2, ptr %8, align 8, !tbaa !12
  invoke void @_ZN2cv15extractImageCOIEPKvRKNS_12_OutputArrayEi(ptr noundef %0, ptr noundef nonnull align 8 dereferenceable(24) %3, i32 noundef -1)
          to label %10 unwind label %11

10:                                               ; preds = %7
  call void @llvm.lifetime.end.p0(i64 24, ptr nonnull %3) #9
  br label %13

11:                                               ; preds = %7
  %12 = landingpad { ptr, i32 }
          cleanup
  call void @llvm.lifetime.end.p0(i64 24, ptr nonnull %3) #9
  br label %21

13:                                               ; preds = %1, %10
  call void @llvm.lifetime.start.p0(i64 24, ptr nonnull %4) #9
  %14 = getelementptr inbounds nuw i8, ptr %4, i64 16
  store i32 0, ptr %14, align 8, !tbaa !3
  %15 = getelementptr inbounds nuw i8, ptr %4, i64 20
  store i32 0, ptr %15, align 4, !tbaa !8
  store i32 16842752, ptr %4, align 8, !tbaa !9
  %16 = getelementptr inbounds nuw i8, ptr %4, i64 8
  store ptr %2, ptr %16, align 8, !tbaa !12
  %17 = invoke noundef i32 @_ZN2cv12countNonZeroERKNS_11_InputArrayE(ptr noundef nonnull align 8 dereferenceable(24) %4)
          to label %18 unwind label %19

18:                                               ; preds = %13
  call void @llvm.lifetime.end.p0(i64 24, ptr nonnull %4) #9
  call void @_ZN2cv3MatD1Ev(ptr noundef nonnull align 8 dereferenceable(96) %2) #9
  call void @llvm.lifetime.end.p0(i64 96, ptr nonnull %2) #9
  ret i32 %17

19:                                               ; preds = %13
  %20 = landingpad { ptr, i32 }
          cleanup
  call void @llvm.lifetime.end.p0(i64 24, ptr nonnull %4) #9
  br label %21

21:                                               ; preds = %19, %11
  %.pn7.pn = phi { ptr, i32 } [ %20, %19 ], [ %12, %11 ]
  call void @_ZN2cv3MatD1Ev(ptr noundef nonnull align 8 dereferenceable(96) %2) #9
  call void @llvm.lifetime.end.p0(i64 96, ptr nonnull %2) #9
  resume { ptr, i32 } %.pn7.pn
}